target datalayout = "e-m:e-p270:32:32-p271:32:32-p272:64:64-i64:64-i128:128-f80:128-n8:16:32:64-S128"
target triple = "x86_64-pc-linux-gnu"

%struct.expert_field = type { i32, i32 }

@hf_1722_acf_msg_type = internal global i32 0, align 4
@hf_1722_acf_msg_length = internal global i32 0, align 4
@ett_1722_acf = internal global i32 0, align 4
@ett_1722_acf_header = internal global i32 0, align 4
@ei_1722_acf_invalid_msg_length = internal global %struct.expert_field zeroinitializer, align 4
@ei_1722_acf_message_is_cropped = internal global %struct.expert_field zeroinitializer, align 4
@proto_1722_acf = internal global i32 0, align 4
@avb1722_acf_dissector_table = internal global ptr null, align 8
@.str.418 = private unnamed_addr constant [11 x i8] c"ACF Header\00", align 1
@.str.419 = private unnamed_addr constant [40 x i8] c"expected: %u bytes, available: %u bytes\00", align 1
@.str.420 = private unnamed_addr constant [8 x i8] c"Unknown\00", align 1
@.str.421 = private unnamed_addr constant [36 x i8] c": %s (0x%02X), %d bytes with header\00", align 1
@.str.422 = private unnamed_addr constant [14 x i8] c": %s (0x%02X)\00", align 1

; Function Attrs: null_pointer_is_valid sspstrong uwtable
define internal i32 @dissect_1722_acf(ptr noundef %0, ptr noundef %1, ptr noundef %2, ptr noundef %3) #0 {
  %5 = alloca i32, align 4
  %6 = alloca ptr, align 8
  %7 = alloca ptr, align 8
  %8 = alloca ptr, align 8
  %9 = alloca ptr, align 8
  %10 = alloca ptr, align 8
  %11 = alloca ptr, align 8
  %12 = alloca ptr, align 8
  %13 = alloca ptr, align 8
  %14 = alloca ptr, align 8
  %15 = alloca i32, align 4
  %16 = alloca i32, align 4
  %17 = alloca i32, align 4
  %18 = alloca i32, align 4
  %19 = alloca ptr, align 8
  %20 = alloca ptr, align 8
  %21 = alloca i32, align 4
  store ptr %0, ptr %6, align 8
  store ptr %1, ptr %7, align 8
  store ptr %2, ptr %8, align 8
  store ptr %3, ptr %9, align 8
  call void @llvm.lifetime.start.p0(i64 8, ptr %10) #9
  call void @llvm.lifetime.start.p0(i64 8, ptr %11) #9
  call void @llvm.lifetime.start.p0(i64 8, ptr %12) #9
  call void @llvm.lifetime.start.p0(i64 8, ptr %13) #9
  call void @llvm.lifetime.start.p0(i64 8, ptr %14) #9
  call void @llvm.lifetime.start.p0(i64 4, ptr %15) #9
  call void @llvm.lifetime.start.p0(i64 4, ptr %16) #9
  call void @llvm.lifetime.start.p0(i64 4, ptr %17) #9
  call void @llvm.lifetime.start.p0(i64 4, ptr %18) #9
  %22 = load ptr, ptr %6, align 8
  %23 = call i32 @tvb_captured_length(ptr noundef %22)
  store i32 %23, ptr %18, align 4
  call void @llvm.lifetime.start.p0(i64 8, ptr %19) #9
  call void @llvm.lifetime.start.p0(i64 8, ptr %20) #9
  %24 = load i32, ptr %18, align 4
  %25 = icmp ult i32 %24, 2
  br i1 %25, label %26, label %28

26:                                               ; preds = %4
  %27 = load i32, ptr %18, align 4
  store i32 %27, ptr %5, align 4
  store i32 1, ptr %21, align 4
  br label %102

28:                                               ; preds = %4
  %29 = load ptr, ptr %8, align 8
  %30 = load i32, ptr @proto_1722_acf, align 4
  %31 = load ptr, ptr %6, align 8
  %32 = call ptr @proto_tree_add_item(ptr noundef %29, i32 noundef %30, ptr noundef %31, i32 noundef 0, i32 noundef -1, i32 noundef 0)
  store ptr %32, ptr %11, align 8
  %33 = load ptr, ptr %11, align 8
  %34 = load i32, ptr @ett_1722_acf, align 4
  %35 = call ptr @proto_item_add_subtree(ptr noundef %33, i32 noundef %34)
  store ptr %35, ptr %13, align 8
  %36 = load ptr, ptr %13, align 8
  %37 = load ptr, ptr %6, align 8
  %38 = load i32, ptr @ett_1722_acf_header, align 4
  %39 = call ptr @proto_tree_add_subtree(ptr noundef %36, ptr noundef %37, i32 noundef 0, i32 noundef 2, i32 noundef %38, ptr noundef %12, ptr noundef @.str.418)
  store ptr %39, ptr %14, align 8
  %40 = load ptr, ptr %14, align 8
  %41 = load i32, ptr @hf_1722_acf_msg_type, align 4
  %42 = load ptr, ptr %6, align 8
  %43 = call ptr @proto_tree_add_item_ret_uint(ptr noundef %40, i32 noundef %41, ptr noundef %42, i32 noundef 0, i32 noundef 2, i32 noundef 0, ptr noundef %15)
  %44 = load ptr, ptr %14, align 8
  %45 = load i32, ptr @hf_1722_acf_msg_length, align 4
  %46 = load ptr, ptr %6, align 8
  %47 = call ptr @proto_tree_add_item_ret_uint(ptr noundef %44, i32 noundef %45, ptr noundef %46, i32 noundef 0, i32 noundef 2, i32 noundef 0, ptr noundef %16)
  store ptr %47, ptr %10, align 8
  %48 = load i32, ptr %16, align 4
  %49 = mul i32 %48, 4
  store i32 %49, ptr %16, align 4
  %50 = load i32, ptr %16, align 4
  %51 = icmp ult i32 %50, 2
  br i1 %51, label %52, label %57

52:                                               ; preds = %28
  %53 = load ptr, ptr %7, align 8
  %54 = load ptr, ptr %10, align 8
  %55 = call ptr @expert_add_info(ptr noundef %53, ptr noundef %54, ptr noundef @ei_1722_acf_invalid_msg_length)
  %56 = load i32, ptr %18, align 4
  store i32 %56, ptr %5, align 4
  store i32 1, ptr %21, align 4
  br label %102

57:                                               ; preds = %28
  %58 = load i32, ptr %18, align 4
  %59 = load i32, ptr %16, align 4
  %60 = icmp ult i32 %58, %59
  br i1 %60, label %61, label %69

61:                                               ; preds = %57
  %62 = load ptr, ptr %7, align 8
  %63 = load ptr, ptr %10, align 8
  %64 = load i32, ptr %16, align 4
  %65 = load ptr, ptr %6, align 8
  %66 = call i32 @tvb_captured_length(ptr noundef %65)
  %67 = call ptr (ptr, ptr, ptr, ptr, ...) @expert_add_info_format(ptr noundef %62, ptr noundef %63, ptr noundef @ei_1722_acf_message_is_cropped, ptr noundef @.str.419, i32 noundef %64, i32 noundef %66)
  %68 = load i32, ptr %18, align 4
  store i32 %68, ptr %5, align 4
  store i32 1, ptr %21, align 4
  br label %102

69:                                               ; preds = %57
  %70 = load ptr, ptr %6, align 8
  %71 = load i32, ptr %16, align 4
  call void @set_actual_length(ptr noundef %70, i32 noundef %71)
  %72 = load ptr, ptr %11, align 8
  %73 = load i32, ptr %16, align 4
  call void @proto_item_set_len(ptr noundef %72, i32 noundef %73)
  %74 = load i32, ptr %15, align 4
  %75 = call ptr @rval_to_str_const(i32 noundef %74, ptr noundef @acf_msg_type_range_rvals, ptr noundef @.str.420)
  store ptr %75, ptr %19, align 8
  %76 = load ptr, ptr %12, align 8
  %77 = load ptr, ptr %19, align 8
  %78 = load i32, ptr %15, align 4
  %79 = load i32, ptr %16, align 4
  call void (ptr, ptr, ...) @proto_item_append_text(ptr noundef %76, ptr noundef @.str.421, ptr noundef %77, i32 noundef %78, i32 noundef %79)
  %80 = load ptr, ptr %11, align 8
  %81 = load ptr, ptr %19, align 8
  %82 = load i32, ptr %15, align 4
  call void (ptr, ptr, ...) @proto_item_append_text(ptr noundef %80, ptr noundef @.str.422, ptr noundef %81, i32 noundef %82)
  %83 = load i32, ptr %16, align 4
  %84 = sub i32 %83, 2
  store i32 %84, ptr %17, align 4
  %85 = load ptr, ptr %6, align 8
  %86 = load i32, ptr %17, align 4
  %87 = call ptr @tvb_new_subset_length(ptr noundef %85, i32 noundef 2, i32 noundef %86)
  store ptr %87, ptr %20, align 8
  %88 = load ptr, ptr @avb1722_acf_dissector_table, align 8
  %89 = load i32, ptr %15, align 4
  %90 = load ptr, ptr %20, align 8
  %91 = load ptr, ptr %7, align 8
  %92 = load ptr, ptr %13, align 8
  %93 = call i32 @dissector_try_uint(ptr noundef %88, i32 noundef %89, ptr noundef %90, ptr noundef %91, ptr noundef %92)
  %94 = icmp ne i32 %93, 0
  br i1 %94, label %100, label %95

95:                                               ; preds = %69
  %96 = load ptr, ptr %20, align 8
  %97 = load ptr, ptr %7, align 8
  %98 = load ptr, ptr %13, align 8
  %99 = call i32 @call_data_dissector(ptr noundef %96, ptr noundef %97, ptr noundef %98)
  br label %100

100:                                              ; preds = %95, %69
  %101 = load i32, ptr %18, align 4
  store i32 %101, ptr %5, align 4
  store i32 1, ptr %21, align 4
  br label %102

102:                                              ; preds = %100, %61, %52, %26
  call void @llvm.lifetime.end.p0(i64 8, ptr %20) #9
  call void @llvm.lifetime.end.p0(i64 8, ptr %19) #9
  call void @llvm.lifetime.end.p0(i64 4, ptr %18) #9
  call void @llvm.lifetime.end.p0(i64 4, ptr %17) #9
  call void @llvm.lifetime.end.p0(i64 4, ptr %16) #9
  call void @llvm.lifetime.end.p0(i64 4, ptr %15) #9
  call void @llvm.lifetime.end.p0(i64 8, ptr %14) #9
  call void @llvm.lifetime.end.p0(i64 8, ptr %13) #9
  call void @llvm.lifetime.end.p0(i64 8, ptr %12) #9
  call void @llvm.lifetime.end.p0(i64 8, ptr %11) #9
  call void @llvm.lifetime.end.p0(i64 8, ptr %10) #9
  %103 = load i32, ptr %5, align 4
  ret i32 %103
}