; Function Attrs: null_pointer_is_valid sspstrong uwtable
define internal i32 @dissect_1722_acf(ptr noundef %0, ptr noundef %1, ptr noundef %2, ptr readnone captures(none) %3) #0 {
  %5 = alloca ptr, align 8
  %6 = alloca i32, align 4
  %7 = alloca i32, align 4
  call void @llvm.lifetime.start.p0(i64 8, ptr nonnull %5) #7
  call void @llvm.lifetime.start.p0(i64 4, ptr nonnull %6) #7
  call void @llvm.lifetime.start.p0(i64 4, ptr nonnull %7) #7
  %8 = tail call i32 @tvb_captured_length(ptr noundef %0)
  %9 = icmp ult i32 %8, 2
  br i1 %9, label %47, label %10

10:                                               ; preds = %4
  %11 = load i32, ptr @proto_1722_acf, align 4
  %12 = tail call ptr @proto_tree_add_item(ptr noundef %2, i32 noundef %11, ptr noundef %0, i32 noundef 0, i32 noundef -1, i32 noundef 0)
  %13 = load i32, ptr @ett_1722_acf, align 4
  %14 = tail call ptr @proto_item_add_subtree(ptr noundef %12, i32 noundef %13)
  %15 = load i32, ptr @ett_1722_acf_header, align 4
  %16 = call ptr @proto_tree_add_subtree(ptr noundef %14, ptr noundef %0, i32 noundef 0, i32 noundef 2, i32 noundef %15, ptr noundef nonnull %5, ptr noundef nonnull @.str.418)
  %17 = load i32, ptr @hf_1722_acf_msg_type, align 4
  %18 = call ptr @proto_tree_add_item_ret_uint(ptr noundef %16, i32 noundef %17, ptr noundef %0, i32 noundef 0, i32 noundef 2, i32 noundef 0, ptr noundef nonnull %6)
  %19 = load i32, ptr @hf_1722_acf_msg_length, align 4
  %20 = call ptr @proto_tree_add_item_ret_uint(ptr noundef %16, i32 noundef %19, ptr noundef %0, i32 noundef 0, i32 noundef 2, i32 noundef 0, ptr noundef nonnull %7)
  %21 = load i32, ptr %7, align 4
  %22 = shl i32 %21, 2
  store i32 %22, ptr %7, align 4
  %23 = icmp eq i32 %22, 0
  br i1 %23, label %24, label %26

24:                                               ; preds = %10
  %25 = call ptr @expert_add_info(ptr noundef %1, ptr noundef %20, ptr noundef nonnull @ei_1722_acf_invalid_msg_length)
  br label %47

26:                                               ; preds = %10
  %27 = icmp ult i32 %8, %22
  br i1 %27, label %28, label %31

28:                                               ; preds = %26
  %29 = call i32 @tvb_captured_length(ptr noundef %0)
  %30 = call ptr (ptr, ptr, ptr, ptr, ...) @expert_add_info_format(ptr noundef %1, ptr noundef %20, ptr noundef nonnull @ei_1722_acf_message_is_cropped, ptr noundef nonnull @.str.419, i32 noundef %22, i32 noundef %29)
  br label %47

31:                                               ; preds = %26
  call void @set_actual_length(ptr noundef %0, i32 noundef %22)
  %32 = load i32, ptr %7, align 4
  call void @proto_item_set_len(ptr noundef %12, i32 noundef %32)
  %33 = load i32, ptr %6, align 4
  %34 = call ptr @rval_to_str_const(i32 noundef %33, ptr noundef nonnull @acf_msg_type_range_rvals, ptr noundef nonnull @.str.420)
  %35 = load ptr, ptr %5, align 8
  %36 = load i32, ptr %6, align 4
  %37 = load i32, ptr %7, align 4
  call void (ptr, ptr, ...) @proto_item_append_text(ptr noundef %35, ptr noundef nonnull @.str.421, ptr noundef %34, i32 noundef %36, i32 noundef %37)
  %38 = load i32, ptr %6, align 4
  call void (ptr, ptr, ...) @proto_item_append_text(ptr noundef %12, ptr noundef nonnull @.str.422, ptr noundef %34, i32 noundef %38)
  %39 = load i32, ptr %7, align 4
  %40 = add i32 %39, -2
  %41 = call ptr @tvb_new_subset_length(ptr noundef %0, i32 noundef 2, i32 noundef %40)
  %42 = load ptr, ptr @avb1722_acf_dissector_table, align 8
  %43 = load i32, ptr %6, align 4
  %44 = call i32 @dissector_try_uint(ptr noundef %42, i32 noundef %43, ptr noundef %41, ptr noundef %1, ptr noundef %14)
  %.not = icmp eq i32 %44, 0
  br i1 %.not, label %45, label %47

45:                                               ; preds = %31
  %46 = call i32 @call_data_dissector(ptr noundef %41, ptr noundef %1, ptr noundef %14)
  br label %47

47:                                               ; preds = %31, %45, %4, %28, %24
  call void @llvm.lifetime.end.p0(i64 4, ptr nonnull %7) #7
  call void @llvm.lifetime.end.p0(i64 4, ptr nonnull %6) #7
  call void @llvm.lifetime.end.p0(i64 8, ptr nonnull %5) #7
  ret i32 %8
}